target datalayout = "e-m:e-p270:32:32-p271:32:32-p272:64:64-i64:64-i128:128-f80:128-n8:16:32:64-S128"
target triple = "x86_64-pc-linux-gnu"

%"class.std::_Function_base" = type { %"union.std::_Any_data", ptr }
%"union.std::_Any_data" = type { %"union.std::_Nocopy_types" }
%"union.std::_Nocopy_types" = type { { i64, i64 } }
%class.anon.449 = type { ptr, ptr }
%"class.std::function.450" = type { %"class.std::_Function_base", ptr }

; Function Attrs: mustprogress nounwind uwtable
define linkonce_odr hidden noundef ptr @_ZNSt9_Any_data9_M_accessEv(ptr noundef nonnull align 8 dereferenceable(16) %0) #1 comdat align 2 {
  %2 = alloca ptr, align 8
  store ptr %0, ptr %2, align 8
  %3 = load ptr, ptr %2, align 8
  %4 = getelementptr inbounds [16 x i8], ptr %3, i64 0, i64 0
  ret ptr %4
}

; Function Attrs: mustprogress nounwind uwtable
define internal void @"_ZNSt14_Function_base13_Base_managerIZN4llvm24thinLTOInternalizeModuleERNS1_6ModuleERKNS1_8DenseMapImPNS1_18GlobalValueSummaryENS1_12DenseMapInfoImvEENS1_6detail12DenseMapPairImS6_EEEEE3$_0E9_M_createIRSF_EEvRSt9_Any_dataOT_St17integral_constantIbLb1EE"(ptr noundef nonnull align 8 dereferenceable(16) %0, ptr noundef nonnull align 8 dereferenceable(16) %1) #1 align 2 {
  %3 = alloca ptr, align 8
  %4 = alloca ptr, align 8
  store ptr %0, ptr %3, align 8
  store ptr %1, ptr %4, align 8
  %5 = load ptr, ptr %3, align 8
  %6 = call noundef ptr @_ZNSt9_Any_data9_M_accessEv(ptr noundef nonnull align 8 dereferenceable(16) %5) #2
  %7 = load ptr, ptr %4, align 8
  call void @llvm.memcpy.p0.p0.i64(ptr align 8 %6, ptr align 8 %7, i64 16, i1 false)
  ret void
}

; Function Attrs: mustprogress nounwind uwtable
define linkonce_odr hidden void @_ZNSt14_Function_baseD2Ev(ptr noundef nonnull align 8 dereferenceable(24) %0) unnamed_addr #1 comdat align 2 {
  %2 = alloca ptr, align 8
  store ptr %0, ptr %2, align 8
  %3 = load ptr, ptr %2, align 8
  %4 = getelementptr inbounds nuw %"class.std::_Function_base", ptr %3, i32 0, i32 1
  %5 = load ptr, ptr %4, align 8
  %6 = icmp ne ptr %5, null
  br i1 %6, label %7, label %13

7:                                                ; preds = %1
  %8 = getelementptr inbounds nuw %"class.std::_Function_base", ptr %3, i32 0, i32 1
  %9 = load ptr, ptr %8, align 8
  %10 = getelementptr inbounds nuw %"class.std::_Function_base", ptr %3, i32 0, i32 0
  %11 = getelementptr inbounds nuw %"class.std::_Function_base", ptr %3, i32 0, i32 0
  %12 = call noundef zeroext i1 %9(ptr noundef nonnull align 8 dereferenceable(16) %10, ptr noundef nonnull align 8 dereferenceable(16) %11, i32 noundef 3)
  br label %13

13:                                               ; preds = %7, %1
  ret void
}

; Function Attrs: mustprogress nounwind uwtable
define internal void @"_ZNSt14_Function_base13_Base_managerIZN4llvm24thinLTOInternalizeModuleERNS1_6ModuleERKNS1_8DenseMapImPNS1_18GlobalValueSummaryENS1_12DenseMapInfoImvEENS1_6detail12DenseMapPairImS6_EEEEE3$_0E15_M_init_functorIRSF_EEvRSt9_Any_dataOT_"(ptr noundef nonnull align 8 dereferenceable(16) %0, ptr noundef nonnull align 8 dereferenceable(16) %1) #1 align 2 {
  %3 = alloca ptr, align 8
  %4 = alloca ptr, align 8
  store ptr %0, ptr %3, align 8
  store ptr %1, ptr %4, align 8
  %5 = load ptr, ptr %3, align 8
  %6 = load ptr, ptr %4, align 8
  call void @"_ZNSt14_Function_base13_Base_managerIZN4llvm24thinLTOInternalizeModuleERNS1_6ModuleERKNS1_8DenseMapImPNS1_18GlobalValueSummaryENS1_12DenseMapInfoImvEENS1_6detail12DenseMapPairImS6_EEEEE3$_0E9_M_createIRSF_EEvRSt9_Any_dataOT_St17integral_constantIbLb1EE"(ptr noundef nonnull align 8 dereferenceable(16) %5, ptr noundef nonnull align 8 dereferenceable(16) %6)
  ret void
}

; Function Attrs: mustprogress nounwind uwtable
define internal noundef zeroext i1 @"_ZNSt14_Function_base13_Base_managerIZN4llvm24thinLTOInternalizeModuleERNS1_6ModuleERKNS1_8DenseMapImPNS1_18GlobalValueSummaryENS1_12DenseMapInfoImvEENS1_6detail12DenseMapPairImS6_EEEEE3$_0E21_M_not_empty_functionISF_EEbRKT_"(ptr noundef nonnull align 8 dereferenceable(16) %0) #1 align 2 {
  %2 = alloca ptr, align 8
  store ptr %0, ptr %2, align 8
  ret i1 true
}

; Function Attrs: mustprogress nounwind uwtable
define linkonce_odr hidden void @_ZNSt14_Function_baseC2Ev(ptr noundef nonnull align 8 dereferenceable(24) %0) unnamed_addr #1 comdat align 2 {
  %2 = alloca ptr, align 8
  store ptr %0, ptr %2, align 8
  %3 = load ptr, ptr %2, align 8
  %4 = getelementptr inbounds nuw %"class.std::_Function_base", ptr %3, i32 0, i32 0
  store ptr null, ptr %4, align 8
  %5 = getelementptr inbounds nuw %"class.std::_Function_base", ptr %3, i32 0, i32 1
  store ptr null, ptr %5, align 8
  ret void
}

; Function Attrs: mustprogress nounwind uwtable
define linkonce_odr hidden void @_ZNSt8functionIFbRKN4llvm11GlobalValueEEED2Ev(ptr noundef nonnull align 8 dereferenceable(32) %0) unnamed_addr #1 comdat align 2 {
  %2 = alloca ptr, align 8
  store ptr %0, ptr %2, align 8
  %3 = load ptr, ptr %2, align 8
  call void @_ZNSt14_Function_baseD2Ev(ptr noundef nonnull align 8 dereferenceable(24) %3) #2
  ret void
}

; Function Attrs: mustprogress nounwind uwtable
define internal void @"_ZNSt8functionIFbRKN4llvm11GlobalValueEEEC2IRZNS0_24thinLTOInternalizeModuleERNS0_6ModuleERKNS0_8DenseMapImPNS0_18GlobalValueSummaryENS0_12DenseMapInfoImvEENS0_6detail12DenseMapPairImSB_EEEEE3$_0vEEOT_"(ptr noundef nonnull align 8 dereferenceable(32) %0, ptr noundef nonnull align 8 dereferenceable(16) %1) unnamed_addr #1 align 2 {
  %3 = alloca ptr, align 8
  %4 = alloca ptr, align 8
  store ptr %0, ptr %3, align 8
  store ptr %1, ptr %4, align 8
  %5 = load ptr, ptr %3, align 8
  %6 = getelementptr inbounds i8, ptr %5, i64 0
  call void @llvm.memset.p0.i64(ptr align 8 %6, i8 0, i64 24, i1 false)
  call void @_ZNSt14_Function_baseC2Ev(ptr noundef nonnull align 8 dereferenceable(24) %5) #2
  %7 = getelementptr inbounds nuw %"class.std::function.450", ptr %5, i32 0, i32 1
  store ptr null, ptr %7, align 8
  %8 = load ptr, ptr %4, align 8
  %9 = call noundef zeroext i1 @"_ZNSt14_Function_base13_Base_managerIZN4llvm24thinLTOInternalizeModuleERNS1_6ModuleERKNS1_8DenseMapImPNS1_18GlobalValueSummaryENS1_12DenseMapInfoImvEENS1_6detail12DenseMapPairImS6_EEEEE3$_0E21_M_not_empty_functionISF_EEbRKT_"(ptr noundef nonnull align 8 dereferenceable(16) %8) #2
  br i1 %9, label %10, label %15

10:                                               ; preds = %2
  %11 = getelementptr inbounds nuw %"class.std::_Function_base", ptr %5, i32 0, i32 0
  %12 = load ptr, ptr %4, align 8
  call void @"_ZNSt14_Function_base13_Base_managerIZN4llvm24thinLTOInternalizeModuleERNS1_6ModuleERKNS1_8DenseMapImPNS1_18GlobalValueSummaryENS1_12DenseMapInfoImvEENS1_6detail12DenseMapPairImS6_EEEEE3$_0E15_M_init_functorIRSF_EEvRSt9_Any_dataOT_"(ptr noundef nonnull align 8 dereferenceable(16) %11, ptr noundef nonnull align 8 dereferenceable(16) %12) #2
  %13 = getelementptr inbounds nuw %"class.std::function.450", ptr %5, i32 0, i32 1
  store ptr @"_ZNSt17_Function_handlerIFbRKN4llvm11GlobalValueEEZNS0_24thinLTOInternalizeModuleERNS0_6ModuleERKNS0_8DenseMapImPNS0_18GlobalValueSummaryENS0_12DenseMapInfoImvEENS0_6detail12DenseMapPairImS9_EEEEE3$_0E9_M_invokeERKSt9_Any_dataS3_", ptr %13, align 8
  %14 = getelementptr inbounds nuw %"class.std::_Function_base", ptr %5, i32 0, i32 1
  store ptr @"_ZNSt17_Function_handlerIFbRKN4llvm11GlobalValueEEZNS0_24thinLTOInternalizeModuleERNS0_6ModuleERKNS0_8DenseMapImPNS0_18GlobalValueSummaryENS0_12DenseMapInfoImvEENS0_6detail12DenseMapPairImS9_EEEEE3$_0E10_M_managerERSt9_Any_dataRKSK_St18_Manager_operation", ptr %14, align 8
  br label %15

15:                                               ; preds = %10, %2
  ret void
}

; Function Attrs: mustprogress nounwind uwtable
define dso_local void @_ZN4llvm24thinLTOInternalizeModuleERNS_6ModuleERKNS_8DenseMapImPNS_18GlobalValueSummaryENS_12DenseMapInfoImvEENS_6detail12DenseMapPairImS4_EEEE(ptr noundef nonnull align 8 dereferenceable(857) %0, ptr noundef nonnull align 8 dereferenceable(20) %1) #1 {
  %3 = alloca ptr, align 8
  %4 = alloca ptr, align 8
  %5 = alloca %class.anon.449, align 8
  %6 = alloca %"class.std::function.450", align 8
  store ptr %0, ptr %3, align 8
  store ptr %1, ptr %4, align 8
  %7 = getelementptr inbounds nuw %class.anon.449, ptr %5, i32 0, i32 0
  %8 = load ptr, ptr %4, align 8
  store ptr %8, ptr %7, align 8
  %9 = getelementptr inbounds nuw %class.anon.449, ptr %5, i32 0, i32 1
  %10 = load ptr, ptr %3, align 8
  store ptr %10, ptr %9, align 8
  %11 = load ptr, ptr %3, align 8
  call void @"_ZNSt8functionIFbRKN4llvm11GlobalValueEEEC2IRZNS0_24thinLTOInternalizeModuleERNS0_6ModuleERKNS0_8DenseMapImPNS0_18GlobalValueSummaryENS0_12DenseMapInfoImvEENS0_6detail12DenseMapPairImSB_EEEEE3$_0vEEOT_"(ptr noundef nonnull align 8 dereferenceable(32) %6, ptr noundef nonnull align 8 dereferenceable(16) %5) #2
  %12 = call noundef zeroext i1 @_ZN4llvm17internalizeModuleERNS_6ModuleESt8functionIFbRKNS_11GlobalValueEEE(ptr noundef nonnull align 8 dereferenceable(857) %11, ptr noundef %6)
  call void @_ZNSt8functionIFbRKN4llvm11GlobalValueEEED2Ev(ptr noundef nonnull align 8 dereferenceable(32) %6) #2
  ret void
}