; Function Attrs: mustprogress nounwind uwtable
define dso_local void @_ZN4llvm24thinLTOInternalizeModuleERNS_6ModuleERKNS_8DenseMapImPNS_18GlobalValueSummaryENS_12DenseMapInfoImvEENS_6detail12DenseMapPairImS4_EEEE(ptr noundef nonnull align 8 dereferenceable(857) %0, ptr noundef nonnull align 8 dereferenceable(20) %1) local_unnamed_addr #0 {
  %3 = alloca %"class.std::function.450", align 8
  %4 = getelementptr inbounds nuw i8, ptr %3, i64 16
  %5 = getelementptr inbounds nuw i8, ptr %3, i64 24
  store ptr %1, ptr %3, align 8
  %.sroa.2.0..sroa_idx = getelementptr inbounds i8, ptr %3, i64 8
  store ptr %0, ptr %.sroa.2.0..sroa_idx, align 8
  store ptr @"_ZNSt17_Function_handlerIFbRKN4llvm11GlobalValueEEZNS0_24thinLTOInternalizeModuleERNS0_6ModuleERKNS0_8DenseMapImPNS0_18GlobalValueSummaryENS0_12DenseMapInfoImvEENS0_6detail12DenseMapPairImS9_EEEEE3$_0E9_M_invokeERKSt9_Any_dataS3_", ptr %5, align 8
  store ptr @"_ZNSt17_Function_handlerIFbRKN4llvm11GlobalValueEEZNS0_24thinLTOInternalizeModuleERNS0_6ModuleERKNS0_8DenseMapImPNS0_18GlobalValueSummaryENS0_12DenseMapInfoImvEENS0_6detail12DenseMapPairImS9_EEEEE3$_0E10_M_managerERSt9_Any_dataRKSK_St18_Manager_operation", ptr %4, align 8
  %6 = call noundef zeroext i1 @_ZN4llvm17internalizeModuleERNS_6ModuleESt8functionIFbRKNS_11GlobalValueEEE(ptr noundef nonnull align 8 dereferenceable(857) %0, ptr noundef nonnull %3)
  %7 = load ptr, ptr %4, align 8
  %.not.i.i = icmp eq ptr %7, null
  br i1 %.not.i.i, label %_ZNSt8functionIFbRKN4llvm11GlobalValueEEED2Ev.exit, label %8

8:                                                ; preds = %2
  %9 = call noundef zeroext i1 %7(ptr noundef nonnull align 8 dereferenceable(16) %3, ptr noundef nonnull align 8 dereferenceable(16) %3, i32 noundef 3) #26
  br label %_ZNSt8functionIFbRKN4llvm11GlobalValueEEED2Ev.exit

_ZNSt8functionIFbRKN4llvm11GlobalValueEEED2Ev.exit: ; preds = %2, %8
  ret void
}